; Function Attrs: mustprogress nounwind uwtable
define hidden void @_ZN6cineon6ReaderD0Ev(ptr noundef nonnull align 8 dereferenceable(2080) %this) unnamed_addr #5 align 2 personality ptr @__gxx_personality_v0 {
entry:
  store ptr getelementptr inbounds ({ [4 x ptr] }, ptr @_ZTVN6cineon6ReaderE, i64 0, i32 0, i64 2), ptr %this, align 8
  %codec.i.i = getelementptr inbounds i8, ptr %this, i64 2064
  %0 = load ptr, ptr %codec.i.i, align 8
  %isnull.i.i = icmp eq ptr %0, null
  br i1 %isnull.i.i, label %delete.end.i.i, label %delete.notnull.i.i

delete.notnull.i.i:                               ; preds = %entry
  %vtable.i.i = load ptr, ptr %0, align 8
  %vfn.i.i = getelementptr inbounds i8, ptr %vtable.i.i, i64 8
  %1 = load ptr, ptr %vfn.i.i, align 8
  tail call void %1(ptr noundef nonnull align 8 dereferenceable(16) %0) #10
  br label %delete.end.i.i

delete.end.i.i:                                   ; preds = %delete.notnull.i.i, %entry
  store ptr null, ptr %codec.i.i, align 8
  %rio.i.i = getelementptr inbounds i8, ptr %this, i64 2072
  %2 = load ptr, ptr %rio.i.i, align 8
  %tobool.not.i.i = icmp eq ptr %2, null
  br i1 %tobool.not.i.i, label %if.end.i.i, label %delete.notnull5.i.i

delete.notnull5.i.i:                              ; preds = %delete.end.i.i
  %vtable6.i.i = load ptr, ptr %2, align 8
  %vfn7.i.i = getelementptr inbounds i8, ptr %vtable6.i.i, i64 8
  %3 = load ptr, ptr %vfn7.i.i, align 8
  tail call void %3(ptr noundef nonnull align 8 dereferenceable(16) %2) #10
  store ptr null, ptr %rio.i.i, align 8
  br label %if.end.i.i

if.end.i.i:                                       ; preds = %delete.notnull5.i.i, %delete.end.i.i
  %fd.i.i = getelementptr inbounds i8, ptr %this, i64 2056
  %4 = load ptr, ptr %fd.i.i, align 8
  %tobool10.not.i.i = icmp eq ptr %4, null
  br i1 %tobool10.not.i.i, label %_ZN6cineon6ReaderD2Ev.exit, label %if.then11.i.i

if.then11.i.i:                                    ; preds = %if.end.i.i
  %call.i1.i = invoke noalias noundef nonnull dereferenceable(16) ptr @_Znwm(i64 noundef 16) #11
          to label %call.i.noexc.i unwind label %terminate.lpad.i

call.i.noexc.i:                                   ; preds = %if.then11.i.i
  invoke void @_ZN6cineon17ElementReadStreamC1EPNS_8InStreamE(ptr noundef nonnull align 8 dereferenceable(16) %call.i1.i, ptr noundef nonnull %4)
          to label %delete.notnull.i unwind label %lpad.i.i

lpad.i.i:                                         ; preds = %call.i.noexc.i
  %5 = landingpad { ptr, i32 }
          catch ptr null
  tail call void @_ZdlPv(ptr noundef nonnull %call.i1.i) #12
  br label %terminate.lpad.body.i

delete.notnull.i:                                 ; preds = %call.i.noexc.i
  store ptr %call.i1.i, ptr %rio.i.i, align 8
  %vtable.i = load ptr, ptr %call.i1.i, align 8
  %vfn.i = getelementptr inbounds i8, ptr %vtable.i, i64 8
  %6 = load ptr, ptr %vfn.i, align 8
  tail call void %6(ptr noundef nonnull align 8 dereferenceable(16) %call.i1.i) #10
  br label %_ZN6cineon6ReaderD2Ev.exit

terminate.lpad.i:                                 ; preds = %if.then11.i.i
  %7 = landingpad { ptr, i32 }
          catch ptr null
  br label %terminate.lpad.body.i

terminate.lpad.body.i:                            ; preds = %terminate.lpad.i, %lpad.i.i
  %eh.lpad-body.i = phi { ptr, i32 } [ %7, %terminate.lpad.i ], [ %5, %lpad.i.i ]
  %8 = extractvalue { ptr, i32 } %eh.lpad-body.i, 0
  tail call void @__clang_call_terminate(ptr %8) #13
  unreachable

_ZN6cineon6ReaderD2Ev.exit:                       ; preds = %if.end.i.i, %delete.notnull.i
  tail call void @_ZdlPv(ptr noundef nonnull %this) #12
  ret void
}